; Function Attrs: nounwind uwtable
define void @glfwSetWindowShouldClose(ptr noundef writeonly captures(none) %0, i32 noundef %1) local_unnamed_addr #0 {
  %3 = load i32, ptr @_glfw, align 8, !tbaa !138
  %.not = icmp eq i32 %3, 0
  br i1 %.not, label %4, label %5

4:                                                ; preds = %2
  tail call void (i32, ptr, ...) @_glfwInputError(i32 noundef 65537, ptr noundef null) #7
  br label %7

5:                                                ; preds = %2
  %6 = getelementptr inbounds nuw i8, ptr %0, i64 32
  store i32 %1, ptr %6, align 8, !tbaa !135
  br label %7

7:                                                ; preds = %5, %4
  ret void
}